; Function Attrs: nofree norecurse nosync nounwind memory(readwrite, inaccessiblemem: none) uwtable
define internal i32 @arith2_get_number(ptr noundef captures(none) %0, i32 noundef %1) #4 {
  %3 = getelementptr inbounds nuw i8, ptr %0, i64 4
  %4 = load i32, ptr %3, align 4, !tbaa !89
  %5 = load i32, ptr %0, align 8, !tbaa !87
  %6 = sub nsw i32 %4, %5
  %7 = add nsw i32 %6, 1
  %.not.i = icmp ult i32 %7, 65536
  %8 = lshr i32 %7, 16
  %spec.select.i = select i1 %.not.i, i32 %7, i32 %8
  %spec.select12.i = select i1 %.not.i, i32 0, i32 16
  %.not11.i = icmp samesign ult i32 %spec.select.i, 256
  %9 = lshr i32 %spec.select.i, 8
  %10 = or disjoint i32 %spec.select12.i, 8
  %.110.i = select i1 %.not11.i, i32 %spec.select.i, i32 %9
  %.1.i = select i1 %.not11.i, i32 %spec.select12.i, i32 %10
  %11 = zext nneg i32 %.110.i to i64
  %12 = getelementptr inbounds nuw [256 x i8], ptr @ff_log2_tab, i64 0, i64 %11
  %13 = load i8, ptr %12, align 1, !tbaa !75
  %14 = zext i8 %13 to i32
  %.not.i23 = icmp ult i32 %1, 65536
  %15 = lshr i32 %1, 16
  %spec.select.i24 = select i1 %.not.i23, i32 %1, i32 %15
  %spec.select12.i25.neg = select i1 %.not.i23, i32 0, i32 -16
  %.not11.i26 = icmp samesign ult i32 %spec.select.i24, 256
  %16 = lshr i32 %spec.select.i24, 8
  %.neg31 = add nsw i32 %spec.select12.i25.neg, -8
  %.110.i27 = select i1 %.not11.i26, i32 %spec.select.i24, i32 %16
  %.1.i28.neg32 = select i1 %.not11.i26, i32 %spec.select12.i25.neg, i32 %.neg31
  %17 = zext nneg i32 %.110.i27 to i64
  %18 = getelementptr inbounds nuw [256 x i8], ptr @ff_log2_tab, i64 0, i64 %17
  %19 = load i8, ptr %18, align 1, !tbaa !75
  %20 = zext i8 %19 to i32
  %.neg30 = add nsw i32 %.1.i28.neg32, %14
  %21 = sub nsw i32 %.neg30, %20
  %22 = add nsw i32 %21, %.1.i
  %23 = shl i32 %1, %22
  %24 = icmp sgt i32 %23, %7
  %25 = sext i1 %24 to i32
  %spec.select = add nsw i32 %22, %25
  %26 = shl i32 %1, %spec.select
  %27 = getelementptr inbounds nuw i8, ptr %0, i64 8
  %28 = load i32, ptr %27, align 8, !tbaa !91
  %29 = sub nsw i32 %28, %5
  %30 = shl i32 %26, 1
  %31 = sub nsw i32 %30, %7
  %32 = icmp sgt i32 %29, %31
  %33 = sub nsw i32 %29, %31
  %34 = ashr i32 %33, 1
  %35 = add nsw i32 %34, %31
  %.0.i = select i1 %32, i32 %35, i32 %29
  %36 = ashr i32 %.0.i, %spec.select
  %37 = shl i32 %36, %spec.select
  %38 = add nsw i32 %36, 1
  %39 = shl i32 %38, %spec.select
  %40 = icmp sgt i32 %39, %31
  %41 = sub nsw i32 %39, %31
  %42 = shl i32 %41, 1
  %43 = add nsw i32 %42, %31
  %.sink.i = select i1 %40, i32 %43, i32 %39
  %44 = add nsw i32 %5, -1
  %45 = add nsw i32 %44, %.sink.i
  store i32 %45, ptr %3, align 4, !tbaa !89
  %46 = icmp sgt i32 %37, %31
  %47 = sub nsw i32 %37, %31
  %48 = shl i32 %47, 1
  %49 = add nsw i32 %48, %31
  %.pn.i = select i1 %46, i32 %49, i32 %37
  %storemerge.i = add nsw i32 %.pn.i, %5
  store i32 %storemerge.i, ptr %0, align 8, !tbaa !87
  %50 = ashr i32 %45, 15
  %51 = ashr i32 %storemerge.i, 15
  %52 = sub nsw i32 %50, %51
  %53 = icmp slt i32 %52, 2
  br i1 %53, label %.lr.ph.i, label %arith2_normalise.exit

.lr.ph.i:                                         ; preds = %2
  %54 = getelementptr inbounds nuw i8, ptr %0, i64 16
  br label %55

55:                                               ; preds = %bytestream2_get_byte.exit.i, %.lr.ph.i
  %56 = phi i32 [ %28, %.lr.ph.i ], [ %87, %bytestream2_get_byte.exit.i ]
  %57 = phi i32 [ %45, %.lr.ph.i ], [ %71, %bytestream2_get_byte.exit.i ]
  %58 = phi i32 [ %storemerge.i, %.lr.ph.i ], [ %89, %bytestream2_get_byte.exit.i ]
  %59 = xor i32 %58, %57
  %60 = and i32 %59, 65536
  %.not.i29 = icmp eq i32 %60, 0
  br i1 %.not.i29, label %65, label %61

61:                                               ; preds = %55
  %62 = xor i32 %57, 32768
  %63 = xor i32 %56, 32768
  store i32 %63, ptr %27, align 8, !tbaa !91
  %64 = xor i32 %58, 32768
  store i32 %64, ptr %0, align 8, !tbaa !87
  br label %65

65:                                               ; preds = %61, %55
  %66 = phi i32 [ %63, %61 ], [ %56, %55 ]
  %67 = phi i32 [ %64, %61 ], [ %58, %55 ]
  %68 = phi i32 [ %62, %61 ], [ %57, %55 ]
  %69 = shl i32 %68, 8
  %70 = and i32 %69, 16776960
  %71 = or disjoint i32 %70, 255
  store i32 %71, ptr %3, align 4, !tbaa !89
  %72 = shl i32 %66, 8
  %73 = and i32 %72, 16776960
  %74 = load ptr, ptr %54, align 8, !tbaa !75
  %75 = getelementptr inbounds nuw i8, ptr %74, i64 8
  %76 = load ptr, ptr %75, align 8, !tbaa !86
  %77 = load ptr, ptr %74, align 8, !tbaa !90
  %78 = ptrtoint ptr %76 to i64
  %79 = ptrtoint ptr %77 to i64
  %80 = sub i64 %78, %79
  %81 = icmp slt i64 %80, 1
  br i1 %81, label %82, label %83

82:                                               ; preds = %65
  store ptr %76, ptr %74, align 8, !tbaa !90
  br label %bytestream2_get_byte.exit.i

83:                                               ; preds = %65
  %84 = getelementptr inbounds nuw i8, ptr %77, i64 1
  store ptr %84, ptr %74, align 8, !tbaa !95
  %85 = load i8, ptr %77, align 1, !tbaa !75
  %86 = zext i8 %85 to i32
  br label %bytestream2_get_byte.exit.i

bytestream2_get_byte.exit.i:                      ; preds = %83, %82
  %.0.i.i = phi i32 [ 0, %82 ], [ %86, %83 ]
  %87 = or disjoint i32 %.0.i.i, %73
  store i32 %87, ptr %27, align 8, !tbaa !91
  %88 = shl i32 %67, 8
  %89 = and i32 %88, 16776960
  store i32 %89, ptr %0, align 8, !tbaa !87
  %90 = lshr i32 %70, 15
  %91 = lshr i32 %89, 15
  %92 = sub nsw i32 %90, %91
  %93 = icmp slt i32 %92, 2
  br i1 %93, label %55, label %arith2_normalise.exit, !llvm.loop !96

arith2_normalise.exit:                            ; preds = %bytestream2_get_byte.exit.i, %2
  ret i32 %36
}